target datalayout = "e-m:e-p270:32:32-p271:32:32-p272:64:64-i64:64-i128:128-f80:128-n8:16:32:64-S128"
target triple = "x86_64-pc-linux-gnu"

%"class.pxrInternal_v0_24__pxrReserved__::UsdAPISchemaBase" = type { %"class.pxrInternal_v0_24__pxrReserved__::UsdSchemaBase", %"class.pxrInternal_v0_24__pxrReserved__::TfToken" }
%"class.pxrInternal_v0_24__pxrReserved__::UsdSchemaBase" = type { ptr, %"class.pxrInternal_v0_24__pxrReserved__::Usd_PrimDataHandle", %"class.pxrInternal_v0_24__pxrReserved__::SdfPath" }
%"class.pxrInternal_v0_24__pxrReserved__::Usd_PrimDataHandle" = type { %"class.pxrInternal_v0_24__pxrReserved__::TfDelegatedCountPtr" }
%"class.pxrInternal_v0_24__pxrReserved__::TfDelegatedCountPtr" = type { ptr }
%"class.pxrInternal_v0_24__pxrReserved__::SdfPath" = type { %"struct.pxrInternal_v0_24__pxrReserved__::Sdf_PathNodeHandleImpl", %"struct.pxrInternal_v0_24__pxrReserved__::Sdf_PathNodeHandleImpl.0" }
%"struct.pxrInternal_v0_24__pxrReserved__::Sdf_PathNodeHandleImpl" = type { %"struct.pxrInternal_v0_24__pxrReserved__::Sdf_Pool<pxrInternal_v0_24__pxrReserved__::Sdf_PathPrimTag, 24, 8>::Handle" }
%"struct.pxrInternal_v0_24__pxrReserved__::Sdf_Pool<pxrInternal_v0_24__pxrReserved__::Sdf_PathPrimTag, 24, 8>::Handle" = type { i32 }
%"struct.pxrInternal_v0_24__pxrReserved__::Sdf_PathNodeHandleImpl.0" = type { %"struct.pxrInternal_v0_24__pxrReserved__::Sdf_Pool<pxrInternal_v0_24__pxrReserved__::Sdf_PathPropTag, 24, 8>::Handle" }
%"struct.pxrInternal_v0_24__pxrReserved__::Sdf_Pool<pxrInternal_v0_24__pxrReserved__::Sdf_PathPropTag, 24, 8>::Handle" = type { i32 }
%"class.pxrInternal_v0_24__pxrReserved__::TfToken" = type { %"class.pxrInternal_v0_24__pxrReserved__::TfPointerAndBits" }
%"class.pxrInternal_v0_24__pxrReserved__::TfPointerAndBits" = type { ptr }
%"class.pxrInternal_v0_24__pxrReserved__::UsdPrim" = type { %"class.pxrInternal_v0_24__pxrReserved__::UsdObject" }
%"class.pxrInternal_v0_24__pxrReserved__::UsdObject" = type { i32, %"class.pxrInternal_v0_24__pxrReserved__::Usd_PrimDataHandle", %"class.pxrInternal_v0_24__pxrReserved__::SdfPath", %"class.pxrInternal_v0_24__pxrReserved__::TfToken" }

@_ZTVN32pxrInternal_v0_24__pxrReserved__16UsdAPISchemaBaseE = external unnamed_addr constant { [8 x ptr] }, align 8

; Function Attrs: mustprogress nounwind uwtable
define linkonce_odr void @_ZN32pxrInternal_v0_24__pxrReserved__16TfPointerAndBitsIKNS_7TfToken4_RepEEC2Ev(ptr noundef nonnull align 8 dereferenceable(8) %0) unnamed_addr #2 comdat align 2 {
  %2 = alloca ptr, align 8
  store ptr %0, ptr %2, align 8
  %3 = load ptr, ptr %2, align 8
  %4 = getelementptr inbounds nuw %"class.pxrInternal_v0_24__pxrReserved__::TfPointerAndBits", ptr %3, i32 0, i32 0
  store ptr null, ptr %4, align 8
  ret void
}

; Function Attrs: mustprogress nounwind uwtable
define linkonce_odr void @_ZN32pxrInternal_v0_24__pxrReserved__7TfTokenC2Ev(ptr noundef nonnull align 8 dereferenceable(8) %0) unnamed_addr #2 comdat align 2 {
  %2 = alloca ptr, align 8
  store ptr %0, ptr %2, align 8
  %3 = load ptr, ptr %2, align 8
  %4 = getelementptr inbounds nuw %"class.pxrInternal_v0_24__pxrReserved__::TfToken", ptr %3, i32 0, i32 0
  call void @_ZN32pxrInternal_v0_24__pxrReserved__16TfPointerAndBitsIKNS_7TfToken4_RepEEC2Ev(ptr noundef nonnull align 8 dereferenceable(8) %4) #6
  ret void
}

; Function Attrs: mustprogress uwtable
define linkonce_odr void @_ZN32pxrInternal_v0_24__pxrReserved__16UsdAPISchemaBaseC2ERKNS_7UsdPrimE(ptr noundef nonnull align 8 dereferenceable(32) %0, ptr noundef nonnull align 8 dereferenceable(32) %1) unnamed_addr #0 comdat align 2 {
  %3 = alloca ptr, align 8
  %4 = alloca ptr, align 8
  store ptr %0, ptr %3, align 8
  store ptr %1, ptr %4, align 8
  %5 = load ptr, ptr %3, align 8
  %6 = load ptr, ptr %4, align 8
  call void @_ZN32pxrInternal_v0_24__pxrReserved__13UsdSchemaBaseC2ERKNS_7UsdPrimE(ptr noundef nonnull align 8 dereferenceable(24) %5, ptr noundef nonnull align 8 dereferenceable(32) %6)
  store ptr getelementptr inbounds inrange(-16, 48) ({ [8 x ptr] }, ptr @_ZTVN32pxrInternal_v0_24__pxrReserved__16UsdAPISchemaBaseE, i32 0, i32 0, i32 2), ptr %5, align 8
  %7 = getelementptr inbounds nuw %"class.pxrInternal_v0_24__pxrReserved__::UsdAPISchemaBase", ptr %5, i32 0, i32 1
  call void @_ZN32pxrInternal_v0_24__pxrReserved__7TfTokenC2Ev(ptr noundef nonnull align 8 dereferenceable(8) %7) #6
  ret void
}

; Function Attrs: mustprogress uwtable
define linkonce_odr void @_ZN32pxrInternal_v0_24__pxrReserved__7UsdPrimC2ERKNS_18Usd_PrimDataHandleERKNS_7SdfPathE(ptr noundef nonnull align 8 dereferenceable(32) %0, ptr noundef nonnull align 8 dereferenceable(8) %1, ptr noundef nonnull align 4 dereferenceable(8) %2) unnamed_addr #0 comdat align 2 {
  %4 = alloca ptr, align 8
  %5 = alloca ptr, align 8
  %6 = alloca ptr, align 8
  store ptr %0, ptr %4, align 8
  store ptr %1, ptr %5, align 8
  store ptr %2, ptr %6, align 8
  %7 = load ptr, ptr %4, align 8
  %8 = load ptr, ptr %5, align 8
  %9 = load ptr, ptr %6, align 8
  call void @_ZN32pxrInternal_v0_24__pxrReserved__9UsdObjectC2ERKNS_18Usd_PrimDataHandleERKNS_7SdfPathE(ptr noundef nonnull align 8 dereferenceable(32) %7, ptr noundef nonnull align 8 dereferenceable(8) %8, ptr noundef nonnull align 4 dereferenceable(8) %9)
  ret void
}

; Function Attrs: mustprogress uwtable
define linkonce_odr void @_ZN32pxrInternal_v0_24__pxrReserved__14UsdLuxLightAPIC2ERKNS_7UsdPrimE(ptr noundef nonnull align 8 dereferenceable(32) %0, ptr noundef nonnull align 8 dereferenceable(32) %1) unnamed_addr #0 comdat align 2 {
  %3 = alloca ptr, align 8
  %4 = alloca ptr, align 8
  store ptr %0, ptr %3, align 8
  store ptr %1, ptr %4, align 8
  %5 = load ptr, ptr %3, align 8
  %6 = load ptr, ptr %4, align 8
  call void @_ZN32pxrInternal_v0_24__pxrReserved__16UsdAPISchemaBaseC2ERKNS_7UsdPrimE(ptr noundef nonnull align 8 dereferenceable(32) %5, ptr noundef nonnull align 8 dereferenceable(32) %6)
  store ptr getelementptr inbounds inrange(-16, 48) ({ [8 x ptr] }, ptr @_ZTVN32pxrInternal_v0_24__pxrReserved__14UsdLuxLightAPIE, i32 0, i32 0, i32 2), ptr %5, align 8
  ret void
}

; Function Attrs: mustprogress uwtable
define linkonce_odr void @_ZNK32pxrInternal_v0_24__pxrReserved__13UsdSchemaBase7GetPrimEv(ptr dead_on_unwind noalias writable sret(%"class.pxrInternal_v0_24__pxrReserved__::UsdPrim") align 8 %0, ptr noundef nonnull align 8 dereferenceable(24) %1) #0 comdat align 2 {
  %3 = alloca ptr, align 8
  %4 = alloca ptr, align 8
  store ptr %0, ptr %3, align 8
  store ptr %1, ptr %4, align 8
  %5 = load ptr, ptr %4, align 8
  %6 = getelementptr inbounds nuw %"class.pxrInternal_v0_24__pxrReserved__::UsdSchemaBase", ptr %5, i32 0, i32 1
  %7 = getelementptr inbounds nuw %"class.pxrInternal_v0_24__pxrReserved__::UsdSchemaBase", ptr %5, i32 0, i32 2
  call void @_ZN32pxrInternal_v0_24__pxrReserved__7UsdPrimC2ERKNS_18Usd_PrimDataHandleERKNS_7SdfPathE(ptr noundef nonnull align 8 dereferenceable(32) %0, ptr noundef nonnull align 8 dereferenceable(8) %6, ptr noundef nonnull align 4 dereferenceable(8) %7)
  ret void
}

; Function Attrs: mustprogress uwtable
define void @_ZN32pxrInternal_v0_24__pxrReserved__14UsdLuxLightAPIC2ERKNS_22UsdShadeConnectableAPIE(ptr noundef nonnull align 8 dereferenceable(32) %0, ptr noundef nonnull align 8 dereferenceable(32) %1) unnamed_addr #0 align 2 personality ptr @__gxx_personality_v0 {
  %3 = alloca ptr, align 8
  %4 = alloca ptr, align 8
  %5 = alloca %"class.pxrInternal_v0_24__pxrReserved__::UsdPrim", align 8
  %6 = alloca ptr, align 8
  %7 = alloca i32, align 4
  store ptr %0, ptr %3, align 8
  store ptr %1, ptr %4, align 8
  %8 = load ptr, ptr %3, align 8
  %9 = load ptr, ptr %4, align 8
  call void @_ZNK32pxrInternal_v0_24__pxrReserved__13UsdSchemaBase7GetPrimEv(ptr dead_on_unwind writable sret(%"class.pxrInternal_v0_24__pxrReserved__::UsdPrim") align 8 %5, ptr noundef nonnull align 8 dereferenceable(24) %9)
  invoke void @_ZN32pxrInternal_v0_24__pxrReserved__14UsdLuxLightAPIC2ERKNS_7UsdPrimE(ptr noundef nonnull align 8 dereferenceable(32) %8, ptr noundef nonnull align 8 dereferenceable(32) %5)
          to label %10 unwind label %11

10:                                               ; preds = %2
  call void @_ZN32pxrInternal_v0_24__pxrReserved__7UsdPrimD2Ev(ptr noundef nonnull align 8 dereferenceable(32) %5) #6
  ret void

11:                                               ; preds = %2
  %12 = landingpad { ptr, i32 }
          cleanup
  %13 = extractvalue { ptr, i32 } %12, 0
  store ptr %13, ptr %6, align 8
  %14 = extractvalue { ptr, i32 } %12, 1
  store i32 %14, ptr %7, align 4
  call void @_ZN32pxrInternal_v0_24__pxrReserved__7UsdPrimD2Ev(ptr noundef nonnull align 8 dereferenceable(32) %5) #6
  br label %15

15:                                               ; preds = %11
  %16 = load ptr, ptr %6, align 8
  %17 = load i32, ptr %7, align 4
  %18 = insertvalue { ptr, i32 } poison, ptr %16, 0
  %19 = insertvalue { ptr, i32 } %18, i32 %17, 1
  resume { ptr, i32 } %19
}